; Function Attrs: mustprogress nounwind uwtable
define internal noundef zeroext i1 @_ZN12_GLOBAL__N_117AArch64PassConfig10addPreISelEv(ptr noundef nonnull align 8 dereferenceable(134) %0) unnamed_addr #0 align 2 {
  %2 = getelementptr inbounds nuw i8, ptr %0, i64 112
  %3 = load ptr, ptr %2, align 8
  %4 = getelementptr inbounds nuw i8, ptr %3, i64 664
  %5 = load i32, ptr %4, align 8
  %.not = icmp eq i32 %5, 0
  br i1 %.not, label %thread-pre-split, label %6

6:                                                ; preds = %1
  %7 = load i8, ptr getelementptr inbounds (i8, ptr @_ZL21EnablePromoteConstant, i64 128), align 8
  %8 = trunc i8 %7 to i1
  br i1 %8, label %9, label %.thread6

9:                                                ; preds = %6
  %10 = tail call noundef ptr @_ZN4llvm32createAArch64PromoteConstantPassEv() #21
  tail call void @_ZN4llvm16TargetPassConfig7addPassEPNS_4PassE(ptr noundef nonnull align 8 dereferenceable(134) %0, ptr noundef %10) #21
  %.pre = load ptr, ptr %2, align 8
  %.phi.trans.insert = getelementptr inbounds nuw i8, ptr %.pre, i64 664
  %.pre4 = load i32, ptr %.phi.trans.insert, align 8
  %.not3 = icmp eq i32 %.pre4, 0
  br i1 %.not3, label %thread-pre-split, label %.thread6

.thread6:                                         ; preds = %6, %9
  %11 = phi ptr [ %.pre, %9 ], [ %3, %6 ]
  %12 = phi i32 [ %.pre4, %9 ], [ %5, %6 ]
  %13 = load i32, ptr getelementptr inbounds (i8, ptr @_ZL17EnableGlobalMerge, i64 128), align 8
  %14 = icmp eq i32 %13, 0
  br i1 %14, label %21, label %16

thread-pre-split:                                 ; preds = %1, %9
  %15 = phi ptr [ %.pre, %9 ], [ %3, %1 ]
  %.pr = load i32, ptr getelementptr inbounds (i8, ptr @_ZL17EnableGlobalMerge, i64 128), align 8
  br label %16

16:                                               ; preds = %thread-pre-split, %.thread6
  %17 = phi ptr [ %15, %thread-pre-split ], [ %11, %.thread6 ]
  %18 = phi i32 [ 0, %thread-pre-split ], [ %12, %.thread6 ]
  %19 = phi i32 [ %.pr, %thread-pre-split ], [ %13, %.thread6 ]
  %20 = icmp eq i32 %19, 1
  br i1 %20, label %21, label %31

21:                                               ; preds = %16, %.thread6
  %22 = phi ptr [ %17, %16 ], [ %11, %.thread6 ]
  %23 = phi i32 [ %18, %16 ], [ %12, %.thread6 ]
  %24 = phi i1 [ false, %16 ], [ true, %.thread6 ]
  %25 = icmp slt i32 %23, 3
  %26 = and i1 %25, %24
  %27 = getelementptr inbounds i8, ptr %22, i64 580
  %28 = load i32, ptr %27, align 4
  %29 = icmp ne i32 %28, 5
  %narrow = and i1 %26, %29
  %30 = tail call noundef ptr @_ZN4llvm21createGlobalMergePassEPKNS_13TargetMachineEjbbb(ptr noundef nonnull %22, i32 noundef 4095, i1 noundef zeroext %26, i1 noundef zeroext %narrow, i1 noundef zeroext false) #21
  tail call void @_ZN4llvm16TargetPassConfig7addPassEPNS_4PassE(ptr noundef nonnull align 8 dereferenceable(134) %0, ptr noundef %30) #21
  br label %31

31:                                               ; preds = %21, %16
  ret i1 false
}